target datalayout = "e-m:e-p270:32:32-p271:32:32-p272:64:64-i64:64-i128:128-f80:128-n8:16:32:64-S128"
target triple = "x86_64-pc-linux-gnu"

%struct.anon = type { i64, double, double }

@stderr = external global ptr, align 8
@.str.45 = private unnamed_addr constant [19 x i8] c"N_VGetArrayPointer\00", align 1
@.str.46 = private unnamed_addr constant [55 x i8] c"\0ASUNDIALS_ERROR: %s() failed - returned NULL pointer\0A\0A\00", align 1
@.str.47 = private unnamed_addr constant [46 x i8] c"\0ASUNDIALS_ERROR: %s() failed with flag = %d\0A\0A\00", align 1
@.str.48 = private unnamed_addr constant [53 x i8] c"\0AMEMORY_ERROR: %s() failed - returned NULL pointer\0A\0A\00", align 1

; Function Attrs: nounwind uwtable
define internal i32 @check_flag(ptr noundef %0, ptr noundef %1, i32 noundef %2) #0 {
  %4 = alloca i32, align 4
  %5 = alloca ptr, align 8
  %6 = alloca ptr, align 8
  %7 = alloca i32, align 4
  %8 = alloca ptr, align 8
  %9 = alloca i32, align 4
  store ptr %0, ptr %5, align 8, !tbaa !10
  store ptr %1, ptr %6, align 8, !tbaa !28
  store i32 %2, ptr %7, align 4, !tbaa !8
  call void @llvm.lifetime.start.p0(i64 8, ptr %8) #6
  %10 = load i32, ptr %7, align 4, !tbaa !8
  %11 = icmp eq i32 %10, 0
  br i1 %11, label %12, label %19

12:                                               ; preds = %3
  %13 = load ptr, ptr %5, align 8, !tbaa !10
  %14 = icmp eq ptr %13, null
  br i1 %14, label %15, label %19

15:                                               ; preds = %12
  %16 = load ptr, ptr @stderr, align 8, !tbaa !24
  %17 = load ptr, ptr %6, align 8, !tbaa !28
  %18 = call i32 (ptr, ptr, ...) @fprintf(ptr noundef %16, ptr noundef @.str.46, ptr noundef %17) #6
  store i32 1, ptr %4, align 4
  store i32 1, ptr %9, align 4
  br label %47

19:                                               ; preds = %12, %3
  %20 = load i32, ptr %7, align 4, !tbaa !8
  %21 = icmp eq i32 %20, 1
  br i1 %21, label %22, label %34

22:                                               ; preds = %19
  %23 = load ptr, ptr %5, align 8, !tbaa !10
  store ptr %23, ptr %8, align 8, !tbaa !30
  %24 = load ptr, ptr %8, align 8, !tbaa !30
  %25 = load i32, ptr %24, align 4, !tbaa !8
  %26 = icmp slt i32 %25, 0
  br i1 %26, label %27, label %33

27:                                               ; preds = %22
  %28 = load ptr, ptr @stderr, align 8, !tbaa !24
  %29 = load ptr, ptr %6, align 8, !tbaa !28
  %30 = load ptr, ptr %8, align 8, !tbaa !30
  %31 = load i32, ptr %30, align 4, !tbaa !8
  %32 = call i32 (ptr, ptr, ...) @fprintf(ptr noundef %28, ptr noundef @.str.47, ptr noundef %29, i32 noundef %31) #6
  store i32 1, ptr %4, align 4
  store i32 1, ptr %9, align 4
  br label %47

33:                                               ; preds = %22
  br label %45

34:                                               ; preds = %19
  %35 = load i32, ptr %7, align 4, !tbaa !8
  %36 = icmp eq i32 %35, 2
  br i1 %36, label %37, label %44

37:                                               ; preds = %34
  %38 = load ptr, ptr %5, align 8, !tbaa !10
  %39 = icmp eq ptr %38, null
  br i1 %39, label %40, label %44

40:                                               ; preds = %37
  %41 = load ptr, ptr @stderr, align 8, !tbaa !24
  %42 = load ptr, ptr %6, align 8, !tbaa !28
  %43 = call i32 (ptr, ptr, ...) @fprintf(ptr noundef %41, ptr noundef @.str.48, ptr noundef %42) #6
  store i32 1, ptr %4, align 4
  store i32 1, ptr %9, align 4
  br label %47

44:                                               ; preds = %37, %34
  br label %45

45:                                               ; preds = %44, %33
  br label %46

46:                                               ; preds = %45
  store i32 0, ptr %4, align 4
  store i32 1, ptr %9, align 4
  br label %47

47:                                               ; preds = %46, %40, %27, %15
  call void @llvm.lifetime.end.p0(i64 8, ptr %8) #6
  %48 = load i32, ptr %4, align 4
  ret i32 %48
}

; Function Attrs: nounwind uwtable
define internal i32 @Jac(ptr noundef %0, ptr noundef %1, double noundef %2, ptr noundef %3, ptr noundef %4, ptr noundef %5, ptr noundef %6) #0 {
  %8 = alloca i32, align 4
  %9 = alloca ptr, align 8
  %10 = alloca ptr, align 8
  %11 = alloca double, align 8
  %12 = alloca ptr, align 8
  %13 = alloca ptr, align 8
  %14 = alloca ptr, align 8
  %15 = alloca ptr, align 8
  %16 = alloca ptr, align 8
  %17 = alloca i64, align 8
  %18 = alloca double, align 8
  %19 = alloca double, align 8
  %20 = alloca ptr, align 8
  %21 = alloca ptr, align 8
  %22 = alloca double, align 8
  %23 = alloca double, align 8
  %24 = alloca i64, align 8
  %25 = alloca i32, align 4
  store ptr %0, ptr %9, align 8, !tbaa !14
  store ptr %1, ptr %10, align 8, !tbaa !14
  store double %2, ptr %11, align 8, !tbaa !4
  store ptr %3, ptr %12, align 8, !tbaa !14
  store ptr %4, ptr %13, align 8, !tbaa !14
  store ptr %5, ptr %14, align 8, !tbaa !10
  store ptr %6, ptr %15, align 8, !tbaa !14
  call void @llvm.lifetime.start.p0(i64 8, ptr %16) #6
  %26 = load ptr, ptr %14, align 8, !tbaa !10
  store ptr %26, ptr %16, align 8, !tbaa !10
  call void @llvm.lifetime.start.p0(i64 8, ptr %17) #6
  %27 = load ptr, ptr %16, align 8, !tbaa !10
  %28 = getelementptr inbounds nuw %struct.anon, ptr %27, i32 0, i32 0
  %29 = load i64, ptr %28, align 8, !tbaa !18
  store i64 %29, ptr %17, align 8, !tbaa !12
  call void @llvm.lifetime.start.p0(i64 8, ptr %18) #6
  %30 = load ptr, ptr %16, align 8, !tbaa !10
  %31 = getelementptr inbounds nuw %struct.anon, ptr %30, i32 0, i32 2
  %32 = load double, ptr %31, align 8, !tbaa !20
  store double %32, ptr %18, align 8, !tbaa !4
  call void @llvm.lifetime.start.p0(i64 8, ptr %19) #6
  %33 = load ptr, ptr %16, align 8, !tbaa !10
  %34 = getelementptr inbounds nuw %struct.anon, ptr %33, i32 0, i32 1
  %35 = load double, ptr %34, align 8, !tbaa !21
  store double %35, ptr %19, align 8, !tbaa !4
  call void @llvm.lifetime.start.p0(i64 8, ptr %20) #6
  store ptr null, ptr %20, align 8, !tbaa !26
  call void @llvm.lifetime.start.p0(i64 8, ptr %21) #6
  store ptr null, ptr %21, align 8, !tbaa !26
  call void @llvm.lifetime.start.p0(i64 8, ptr %22) #6
  call void @llvm.lifetime.start.p0(i64 8, ptr %23) #6
  call void @llvm.lifetime.start.p0(i64 8, ptr %24) #6
  %36 = load ptr, ptr %9, align 8, !tbaa !14
  %37 = call ptr @N_VGetArrayPointer(ptr noundef %36)
  store ptr %37, ptr %20, align 8, !tbaa !26
  %38 = load ptr, ptr %20, align 8, !tbaa !26
  %39 = call i32 @check_flag(ptr noundef %38, ptr noundef @.str.45, i32 noundef 0)
  %40 = icmp ne i32 %39, 0
  br i1 %40, label %41, label %42

41:                                               ; preds = %7
  store i32 1, ptr %8, align 4
  store i32 1, ptr %25, align 4
  br label %101

42:                                               ; preds = %7
  %43 = load ptr, ptr %10, align 8, !tbaa !14
  %44 = call ptr @N_VGetArrayPointer(ptr noundef %43)
  store ptr %44, ptr %21, align 8, !tbaa !26
  %45 = load ptr, ptr %21, align 8, !tbaa !26
  %46 = call i32 @check_flag(ptr noundef %45, ptr noundef @.str.45, i32 noundef 0)
  %47 = icmp ne i32 %46, 0
  br i1 %47, label %48, label %49

48:                                               ; preds = %42
  store i32 1, ptr %8, align 4
  store i32 1, ptr %25, align 4
  br label %101

49:                                               ; preds = %42
  %50 = load ptr, ptr %10, align 8, !tbaa !14
  call void @N_VConst(double noundef 0.000000e+00, ptr noundef %50)
  %51 = load double, ptr %18, align 8, !tbaa !4
  %52 = load double, ptr %19, align 8, !tbaa !4
  %53 = fdiv double %51, %52
  %54 = load double, ptr %19, align 8, !tbaa !4
  %55 = fdiv double %53, %54
  store double %55, ptr %22, align 8, !tbaa !4
  %56 = load double, ptr %18, align 8, !tbaa !4
  %57 = fmul double -2.000000e+00, %56
  %58 = load double, ptr %19, align 8, !tbaa !4
  %59 = fdiv double %57, %58
  %60 = load double, ptr %19, align 8, !tbaa !4
  %61 = fdiv double %59, %60
  store double %61, ptr %23, align 8, !tbaa !4
  %62 = load ptr, ptr %21, align 8, !tbaa !26
  %63 = getelementptr inbounds double, ptr %62, i64 0
  store double 0.000000e+00, ptr %63, align 8, !tbaa !4
  store i64 1, ptr %24, align 8, !tbaa !12
  br label %64

64:                                               ; preds = %93, %49
  %65 = load i64, ptr %24, align 8, !tbaa !12
  %66 = load i64, ptr %17, align 8, !tbaa !12
  %67 = sub nsw i64 %66, 1
  %68 = icmp slt i64 %65, %67
  br i1 %68, label %69, label %96

69:                                               ; preds = %64
  %70 = load double, ptr %22, align 8, !tbaa !4
  %71 = load ptr, ptr %20, align 8, !tbaa !26
  %72 = load i64, ptr %24, align 8, !tbaa !12
  %73 = sub nsw i64 %72, 1
  %74 = getelementptr inbounds double, ptr %71, i64 %73
  %75 = load double, ptr %74, align 8, !tbaa !4
  %76 = load double, ptr %23, align 8, !tbaa !4
  %77 = load ptr, ptr %20, align 8, !tbaa !26
  %78 = load i64, ptr %24, align 8, !tbaa !12
  %79 = getelementptr inbounds double, ptr %77, i64 %78
  %80 = load double, ptr %79, align 8, !tbaa !4
  %81 = fmul double %76, %80
  %82 = call double @llvm.fmuladd.f64(double %70, double %75, double %81)
  %83 = load double, ptr %22, align 8, !tbaa !4
  %84 = load ptr, ptr %20, align 8, !tbaa !26
  %85 = load i64, ptr %24, align 8, !tbaa !12
  %86 = add nsw i64 %85, 1
  %87 = getelementptr inbounds double, ptr %84, i64 %86
  %88 = load double, ptr %87, align 8, !tbaa !4
  %89 = call double @llvm.fmuladd.f64(double %83, double %88, double %82)
  %90 = load ptr, ptr %21, align 8, !tbaa !26
  %91 = load i64, ptr %24, align 8, !tbaa !12
  %92 = getelementptr inbounds double, ptr %90, i64 %91
  store double %89, ptr %92, align 8, !tbaa !4
  br label %93

93:                                               ; preds = %69
  %94 = load i64, ptr %24, align 8, !tbaa !12
  %95 = add nsw i64 %94, 1
  store i64 %95, ptr %24, align 8, !tbaa !12
  br label %64

96:                                               ; preds = %64
  %97 = load ptr, ptr %21, align 8, !tbaa !26
  %98 = load i64, ptr %17, align 8, !tbaa !12
  %99 = sub nsw i64 %98, 1
  %100 = getelementptr inbounds double, ptr %97, i64 %99
  store double 0.000000e+00, ptr %100, align 8, !tbaa !4
  store i32 0, ptr %8, align 4
  store i32 1, ptr %25, align 4
  br label %101

101:                                              ; preds = %96, %48, %41
  call void @llvm.lifetime.end.p0(i64 8, ptr %24) #6
  call void @llvm.lifetime.end.p0(i64 8, ptr %23) #6
  call void @llvm.lifetime.end.p0(i64 8, ptr %22) #6
  call void @llvm.lifetime.end.p0(i64 8, ptr %21) #6
  call void @llvm.lifetime.end.p0(i64 8, ptr %20) #6
  call void @llvm.lifetime.end.p0(i64 8, ptr %19) #6
  call void @llvm.lifetime.end.p0(i64 8, ptr %18) #6
  call void @llvm.lifetime.end.p0(i64 8, ptr %17) #6
  call void @llvm.lifetime.end.p0(i64 8, ptr %16) #6
  %102 = load i32, ptr %8, align 4
  ret i32 %102
}