; Function Attrs: nounwind uwtable
define internal range(i32 0, 2) i32 @Jac(ptr noundef %0, ptr noundef %1, double %2, ptr readnone captures(none) %3, ptr readnone captures(none) %4, ptr noundef readonly captures(none) %5, ptr readnone captures(none) %6) #0 {
  %8 = load i64, ptr %5, align 8, !tbaa !10
  %9 = getelementptr inbounds nuw i8, ptr %5, i64 16
  %10 = load double, ptr %9, align 8, !tbaa !14
  %11 = getelementptr inbounds nuw i8, ptr %5, i64 8
  %12 = load double, ptr %11, align 8, !tbaa !15
  %13 = tail call ptr @N_VGetArrayPointer(ptr noundef %0) #9
  %14 = icmp eq ptr %13, null
  br i1 %14, label %check_flag.exit, label %17

check_flag.exit:                                  ; preds = %7
  %15 = load ptr, ptr @stderr, align 8, !tbaa !8
  %16 = tail call i32 (ptr, ptr, ...) @fprintf(ptr noundef %15, ptr noundef nonnull @.str.46, ptr noundef nonnull @.str.45) #10
  br label %42

17:                                               ; preds = %7
  %18 = tail call ptr @N_VGetArrayPointer(ptr noundef %1) #9
  %19 = icmp eq ptr %18, null
  br i1 %19, label %check_flag.exit36, label %22

check_flag.exit36:                                ; preds = %17
  %20 = load ptr, ptr @stderr, align 8, !tbaa !8
  %21 = tail call i32 (ptr, ptr, ...) @fprintf(ptr noundef %20, ptr noundef nonnull @.str.46, ptr noundef nonnull @.str.45) #10
  br label %42

22:                                               ; preds = %17
  tail call void @N_VConst(double noundef 0.000000e+00, ptr noundef %1) #9
  %23 = fdiv double %10, %12
  %24 = fdiv double %23, %12
  %25 = fmul double %10, -2.000000e+00
  %26 = fdiv double %25, %12
  %27 = fdiv double %26, %12
  store double 0.000000e+00, ptr %18, align 8, !tbaa !18
  %28 = add i64 %8, -1
  %29 = icmp sgt i64 %8, 2
  br i1 %29, label %.lr.ph, label %._crit_edge

.lr.ph:                                           ; preds = %22, %.lr.ph
  %.041 = phi i64 [ %36, %.lr.ph ], [ 1, %22 ]
  %30 = getelementptr double, ptr %13, i64 %.041
  %31 = getelementptr i8, ptr %30, i64 -8
  %32 = load double, ptr %31, align 8, !tbaa !18
  %33 = load double, ptr %30, align 8, !tbaa !18
  %34 = fmul double %27, %33
  %35 = tail call double @llvm.fmuladd.f64(double %24, double %32, double %34)
  %36 = add nuw nsw i64 %.041, 1
  %37 = getelementptr inbounds nuw double, ptr %13, i64 %36
  %38 = load double, ptr %37, align 8, !tbaa !18
  %39 = tail call double @llvm.fmuladd.f64(double %24, double %38, double %35)
  %40 = getelementptr inbounds nuw double, ptr %18, i64 %.041
  store double %39, ptr %40, align 8, !tbaa !18
  %exitcond.not = icmp eq i64 %36, %28
  br i1 %exitcond.not, label %._crit_edge, label %.lr.ph

._crit_edge:                                      ; preds = %.lr.ph, %22
  %41 = getelementptr inbounds double, ptr %18, i64 %28
  store double 0.000000e+00, ptr %41, align 8, !tbaa !18
  br label %42

42:                                               ; preds = %check_flag.exit36, %check_flag.exit, %._crit_edge
  %.032 = phi i32 [ 0, %._crit_edge ], [ 1, %check_flag.exit ], [ 1, %check_flag.exit36 ]
  ret i32 %.032
}